; Function Attrs: mustprogress nofree nounwind uwtable
define void @_ZN18OpenImageIO_v2_6_010Filesystem6IOFile5closeEv(ptr nocapture noundef nonnull align 8 dereferenceable(152) %this) unnamed_addr #10 align 2 {
entry:
  %m_file = getelementptr inbounds i8, ptr %this, i64 88
  %0 = load ptr, ptr %m_file, align 8
  %tobool.not = icmp eq ptr %0, null
  br i1 %tobool.not, label %if.end, label %if.then

if.then:                                          ; preds = %entry
  %call = tail call i32 @fclose(ptr noundef nonnull %0)
  store ptr null, ptr %m_file, align 8
  br label %if.end

if.end:                                           ; preds = %if.then, %entry
  %m_mode = getelementptr inbounds i8, ptr %this, i64 48
  store i32 0, ptr %m_mode, align 8
  ret void
}